; Function Attrs: nounwind sspstrong uwtable
define dso_local i64 @rb_sym2str(i64 noundef %0) local_unnamed_addr #0 {
  %2 = icmp eq i64 %0, 0
  %3 = and i64 %0, 7
  %4 = icmp ne i64 %3, 0
  %5 = or i1 %2, %4
  br i1 %5, label %RB_DYNAMIC_SYM_P.exit.thread, label %RB_DYNAMIC_SYM_P.exit

RB_DYNAMIC_SYM_P.exit:                            ; preds = %1
  %6 = inttoptr i64 %0 to ptr
  %7 = load i64, ptr %6, align 8, !tbaa !26
  %8 = and i64 %7, 31
  %9 = icmp eq i64 %8, 20
  br i1 %9, label %10, label %RB_DYNAMIC_SYM_P.exit.thread

10:                                               ; preds = %RB_DYNAMIC_SYM_P.exit
  %11 = getelementptr inbounds nuw i8, ptr %6, i64 24
  %12 = load i64, ptr %11, align 8, !tbaa !29
  br label %15

RB_DYNAMIC_SYM_P.exit.thread:                     ; preds = %1, %RB_DYNAMIC_SYM_P.exit
  %13 = lshr i64 %0, 8
  %14 = tail call fastcc i64 @lookup_id_str(i64 noundef %13)
  br label %15

15:                                               ; preds = %RB_DYNAMIC_SYM_P.exit.thread, %10
  %.0 = phi i64 [ %12, %10 ], [ %14, %RB_DYNAMIC_SYM_P.exit.thread ]
  ret i64 %.0
}